Certificate:
    Data:
        Version: 3 (0x2)
        Serial Number: 1 (0x1)
        Signature Algorithm: sha256WithRSAEncryption
        Issuer: CN=devcert
        Validity
            Not Before: Jan 18 09:49:57 2024 GMT
            Not After : Apr 22 09:49:57 2026 GMT
        Subject: CN=localhost
        Subject Public Key Info:
            Public Key Algorithm: rsaEncryption
                Public-Key: (2048 bit)
                Modulus:
                    00:8f:bc:d8:37:77:e5:58:30:05:da:5d:5a:e7:44:
                    0a:52:6f:a2:c8:78:e4:55:a8:bf:8c:aa:da:a7:3a:
                    7b:56:e8:a6:4d:98:7c:5d:8c:96:54:c7:a4:71:66:
                    ca:34:77:ac:57:9f:1f:38:89:8a:a7:8e:59:24:74:
                    25:5f:78:eb:de:ce:e5:c4:d9:12:d2:16:6d:55:a6:
                    e6:38:7a:6d:68:9e:8b:92:78:73:5e:39:2d:a5:e6:
                    25:a5:aa:61:db:71:41:40:2d:a0:e8:54:b7:b9:73:
                    e3:d5:f9:87:76:51:2e:0b:e6:d0:2f:30:13:ef:31:
                    f2:ab:bb:9a:62:45:1d:f6:ac:b4:56:e5:ff:1c:a6:
                    64:4c:10:fd:3e:a5:10:7e:e6:8d:75:58:66:99:0d:
                    3d:b9:03:a4:44:ca:f2:4d:8c:a3:88:32:c0:87:82:
                    47:98:dc:88:a6:cf:8d:c4:ed:cc:b9:35:34:3b:45:
                    47:3c:b1:0c:72:72:94:41:2b:e2:49:93:e5:63:bc:
                    cb:1e:48:ee:59:92:df:55:91:1e:a2:29:02:ce:45:
                    8b:9d:cd:87:00:e8:b5:8a:ad:50:f6:2f:84:46:40:
                    53:d3:f8:c7:07:6f:c0:33:b6:3b:02:f1:e5:c0:18:
                    cb:7b:61:b4:fa:24:1c:26:ff:c7:64:4e:58:60:d8:
                    71:7b
                Exponent: 65537 (0x10001)
        X509v3 extensions:
            X509v3 Basic Constraints: critical
                CA:FALSE
            X509v3 Subject Key Identifier: 
                F8:7A:B0:A7:21:DE:8C:97:8B:A2:20:F2:1B:31:A6:B1:BE:5C:40:22
            X509v3 Authority Key Identifier: 
                keyid:58:10:48:3C:E9:F6:15:A1:A4:F9:6F:DB:14:C9:18:1B:9F:96:EB:32
                DirName:/CN=devcert
                serial:33:20:4F:3C:F5:4C:A8:80:79:2C:A7:31:8A:F5:EB:FB:EC:7D:64:54
            X509v3 Key Usage: critical
                Digital Signature, Key Encipherment
            X509v3 Extended Key Usage: 
                TLS Web Server Authentication
            X509v3 Subject Alternative Name: 
                DNS:localhost, DNS:*.localhost
    Signature Algorithm: sha256WithRSAEncryption
    Signature Value:
        11:70:02:14:75:d0:55:cf:5c:3a:b9:c8:95:fc:79:c0:e4:93:
        22:f0:ae:7a:26:38:27:0d:59:ca:bc:7c:cb:38:b4:ee:0c:90:
        55:97:fb:d5:4a:fb:8f:88:b9:3c:af:48:62:e3:bc:fd:9e:41:
        d8:19:d3:ff:f4:23:86:96:31:1a:67:a0:75:67:65:7c:9b:9b:
        f2:c7:9a:f9:24:4a:ec:a0:56:45:c3:ab:b7:7c:68:60:2c:ca:
        37:4a:83:f3:52:23:7e:c7:30:d8:bb:a7:d1:f7:23:01:86:33:
        76:98:6b:0c:dd:d0:39:82:ad:ec:22:04:b1:6e:b7:4c:7e:ef:
        74:0a:46:de:d5:ed:f0:8c:4a:f3:87:cc:e2:a1:36:6d:ca:34:
        55:67:3f:d6:44:9d:c2:4f:43:e0:2d:28:6e:84:8f:2d:a4:2d:
        6a:fc:e7:92:b4:94:cc:04:b1:72:53:e3:e1:db:9b:ae:e9:52:
        77:49:38:c0:e6:e3:a7:0b:e4:86:1a:4e:03:9c:97:30:c9:fc:
        3b:7f:10:a5:e0:1c:1c:df:5c:9a:26:cf:b8:5a:a5:de:f6:33:
        f8:9e:df:93:d6:29:b2:9b:24:fc:94:70:7a:35:6a:bd:9a:32:
        87:ec:25:0c:7c:58:88:5f:04:81:47:82:3a:03:b8:fa:e7:92:
        03:ed:7b:c8
-----BEGIN CERTIFICATE-----
MIIDaTCCAlGgAwIBAgIBATANBgkqhkiG9w0BAQsFADASMRAwDgYDVQQDDAdkZXZj
ZXJ0MB4XDTI0MDExODA5NDk1N1oXDTI2MDQyMjA5NDk1N1owFDESMBAGA1UEAwwJ
bG9jYWxob3N0MIIBIjANBgkqhkiG9w0BAQEFAAOCAQ8AMIIBCgKCAQEAj7zYN3fl
WDAF2l1a50QKUm+iyHjkVai/jKrapzp7VuimTZh8XYyWVMekcWbKNHesV58fOImK
p45ZJHQlX3jr3s7lxNkS0hZtVabmOHptaJ6LknhzXjktpeYlpaph23FBQC2g6FS3
uXPj1fmHdlEuC+bQLzAT7zHyq7uaYkUd9qy0VuX/HKZkTBD9PqUQfuaNdVhmmQ09
uQOkRMryTYyjiDLAh4JHmNyIps+NxO3MuTU0O0VHPLEMcnKUQSviSZPlY7zLHkju
WZLfVZEeoikCzkWLnc2HAOi1iq1Q9i+ERkBT0/jHB2/AM7Y7AvHlwBjLe2G0+iQc
Jv/HZE5YYNhxewIDAQABo4HHMIHEMAwGA1UdEwEB/wQCMAAwHQYDVR0OBBYEFPh6
sKch3oyXi6Ig8hsxprG+XEAiME0GA1UdIwRGMESAFFgQSDzp9hWhpPlv2xTJGBuf
lusyoRakFDASMRAwDgYDVQQDDAdkZXZjZXJ0ghQzIE889UyogHkspzGK9ev77H1k
VDAOBgNVHQ8BAf8EBAMCBaAwEwYDVR0lBAwwCgYIKwYBBQUHAwEwIQYDVR0RBBow
GIIJbG9jYWxob3N0ggsqLmxvY2FsaG9zdDANBgkqhkiG9w0BAQsFAAOCAQEAEXAC
FHXQVc9cOrnIlfx5wOSTIvCueiY4Jw1Zyrx8yzi07gyQVZf71Ur7j4i5PK9IYuO8
/Z5B2BnT//QjhpYxGmegdWdlfJub8sea+SRK7KBWRcOrt3xoYCzKN0qD81Ijfscw
2Lun0fcjAYYzdphrDN3QOYKt7CIEsW63TH7vdApG3tXt8IxK84fM4qE2bco0VWc/
1kSdwk9D4C0oboSPLaQtavznkrSUzASxclPj4dubrulSd0k4wObjpwvkhhpOA5yX
MMn8O38QpeAcHN9cmibPuFql3vYz+J7fk9Ypspsk/JRwejVqvZoyh+wlDHxYiF8E
gUeCOgO4+ueSA+17yA==
-----END CERTIFICATE-----
